target datalayout = "e-m:e-p270:32:32-p271:32:32-p272:64:64-i64:64-i128:128-f80:128-n8:16:32:64-S128"
target triple = "x86_64-pc-linux-gnu"

%struct.expert_field = type { i32, i32 }
%struct._packet_info = type { ptr, ptr, i32, i32, %struct.nstime_t, %struct.nstime_t, %struct.nstime_t, i8, ptr, ptr, ptr, ptr, %struct._address, %struct._address, %struct._address, %struct._address, %struct._address, %struct._address, i32, ptr, i8, [3 x i8], %struct.anon, i32, i32, i32, i32, ptr, i8, ptr, ptr, i16, i16, i32, i32, i16, i32, i32, ptr, ptr, ptr, i8, i8, i16, i16, i16, i32, i16, i16, ptr, ptr, ptr, ptr, ptr, i32, i32 }
%struct.nstime_t = type { i64, i32 }
%struct._address = type { i32, i32, ptr, ptr }
%struct.anon = type { i8, [3 x i8] }

@hf_isis_lsp_ext_ip_reachability_subclvs_len = internal global i32 0, align 4
@hf_isis_lsp_ext_ip_reachability_code = internal global i32 0, align 4
@hf_isis_lsp_ext_ip_reachability_len = internal global i32 0, align 4
@hf_isis_lsp_ext_ip_reachability_ipv4_prefix = internal global i32 0, align 4
@hf_isis_lsp_ext_ip_reachability_metric = internal global i32 0, align 4
@hf_isis_lsp_ext_ip_reachability_distribution = internal global i32 0, align 4
@hf_isis_lsp_ext_ip_reachability_subtlv = internal global i32 0, align 4
@hf_isis_lsp_ext_ip_reachability_prefix_length = internal global i32 0, align 4
@.str.599 = private unnamed_addr constant [8 x i8] c"Unknown\00", align 1
@ett_isis_lsp_clv_ip_reach_subclv = internal global i32 0, align 4
@ett_isis_lsp_part_of_clv_ext_ip_reachability = internal global i32 0, align 4
@ei_isis_lsp_short_clv = internal global %struct.expert_field zeroinitializer, align 4
@.str.835 = private unnamed_addr constant [7 x i8] c"subTLV\00", align 1
@.str.836 = private unnamed_addr constant [18 x i8] c": %s (c=%u, l=%u)\00", align 1
@.str.860 = private unnamed_addr constant [43 x i8] c"IPv4 prefix has an invalid length: %d bits\00", align 1
@.str.861 = private unnamed_addr constant [21 x i8] c"Ext. IP Reachability\00", align 1
@.str.862 = private unnamed_addr constant [8 x i8] c": %s/%u\00", align 1
@.str.863 = private unnamed_addr constant [20 x i8] c"no sub-TLVs present\00", align 1

; Function Attrs: inlinehint nounwind null_pointer_is_valid sspstrong uwtable
define internal void @set_address(ptr noundef %0, i32 noundef %1, i32 noundef %2, ptr noundef %3) #3 {
  %5 = alloca ptr, align 8
  %6 = alloca i32, align 4
  %7 = alloca i32, align 4
  %8 = alloca ptr, align 8
  store ptr %0, ptr %5, align 8
  store i32 %1, ptr %6, align 4
  store i32 %2, ptr %7, align 4
  store ptr %3, ptr %8, align 8
  %9 = load i32, ptr %7, align 4
  %10 = icmp eq i32 %9, 0
  br i1 %10, label %11, label %14

11:                                               ; preds = %4
  br label %12

12:                                               ; preds = %11
  br label %13

13:                                               ; preds = %12
  br label %19

14:                                               ; preds = %4
  br label %15

15:                                               ; preds = %14
  br label %16

16:                                               ; preds = %15
  br label %17

17:                                               ; preds = %16
  br label %18

18:                                               ; preds = %17
  br label %19

19:                                               ; preds = %18, %13
  %20 = load i32, ptr %6, align 4
  %21 = load ptr, ptr %5, align 8
  %22 = getelementptr inbounds nuw %struct._address, ptr %21, i32 0, i32 0
  store i32 %20, ptr %22, align 8
  %23 = load i32, ptr %7, align 4
  %24 = load ptr, ptr %5, align 8
  %25 = getelementptr inbounds nuw %struct._address, ptr %24, i32 0, i32 1
  store i32 %23, ptr %25, align 4
  %26 = load ptr, ptr %8, align 8
  %27 = load ptr, ptr %5, align 8
  %28 = getelementptr inbounds nuw %struct._address, ptr %27, i32 0, i32 2
  store ptr %26, ptr %28, align 8
  %29 = load ptr, ptr %5, align 8
  %30 = getelementptr inbounds nuw %struct._address, ptr %29, i32 0, i32 3
  store ptr null, ptr %30, align 8
  ret void
}

; Function Attrs: null_pointer_is_valid sspstrong uwtable
define internal void @dissect_lsp_ext_ip_reachability_clv(ptr noundef %0, ptr noundef %1, ptr noundef %2, i32 noundef %3, ptr noundef %4, i32 noundef %5) #0 {
  %7 = alloca ptr, align 8
  %8 = alloca ptr, align 8
  %9 = alloca ptr, align 8
  %10 = alloca i32, align 4
  %11 = alloca ptr, align 8
  %12 = alloca i32, align 4
  %13 = alloca ptr, align 8
  %14 = alloca ptr, align 8
  %15 = alloca ptr, align 8
  %16 = alloca ptr, align 8
  %17 = alloca i8, align 1
  %18 = alloca i32, align 4
  %19 = alloca i32, align 4
  %20 = alloca i32, align 4
  %21 = alloca %struct._address, align 8
  %22 = alloca i32, align 4
  %23 = alloca i32, align 4
  %24 = alloca i32, align 4
  %25 = alloca i32, align 4
  %26 = alloca i32, align 4
  %27 = alloca i32, align 4
  %28 = alloca ptr, align 8
  %29 = alloca i32, align 4
  store ptr %0, ptr %7, align 8
  store ptr %1, ptr %8, align 8
  store ptr %2, ptr %9, align 8
  store i32 %3, ptr %10, align 4
  store ptr %4, ptr %11, align 8
  store i32 %5, ptr %12, align 4
  call void @llvm.lifetime.start.p0(i64 8, ptr %13) #4
  store ptr null, ptr %13, align 8
  call void @llvm.lifetime.start.p0(i64 8, ptr %14) #4
  store ptr null, ptr %14, align 8
  call void @llvm.lifetime.start.p0(i64 8, ptr %15) #4
  store ptr null, ptr %15, align 8
  call void @llvm.lifetime.start.p0(i64 8, ptr %16) #4
  store ptr null, ptr %16, align 8
  call void @llvm.lifetime.start.p0(i64 1, ptr %17) #4
  call void @llvm.lifetime.start.p0(i64 4, ptr %18) #4
  call void @llvm.lifetime.start.p0(i64 4, ptr %19) #4
  call void @llvm.lifetime.start.p0(i64 4, ptr %20) #4
  call void @llvm.lifetime.start.p0(i64 24, ptr %21) #4
  call void @llvm.lifetime.start.p0(i64 4, ptr %22) #4
  call void @llvm.lifetime.start.p0(i64 4, ptr %23) #4
  call void @llvm.lifetime.start.p0(i64 4, ptr %24) #4
  call void @llvm.lifetime.start.p0(i64 4, ptr %25) #4
  call void @llvm.lifetime.start.p0(i64 4, ptr %26) #4
  call void @llvm.lifetime.start.p0(i64 4, ptr %27) #4
  call void @llvm.lifetime.start.p0(i64 8, ptr %28) #4
  br label %30

30:                                               ; preds = %205, %6
  %31 = load i32, ptr %12, align 4
  %32 = icmp sgt i32 %31, 0
  br i1 %32, label %33, label %212

33:                                               ; preds = %30
  %34 = load ptr, ptr %7, align 8
  %35 = load i32, ptr %10, align 4
  %36 = add i32 %35, 4
  %37 = call zeroext i8 @tvb_get_uint8(ptr noundef %34, i32 noundef %36)
  store i8 %37, ptr %17, align 1
  %38 = load i8, ptr %17, align 1
  %39 = zext i8 %38 to i32
  %40 = and i32 %39, 63
  store i32 %40, ptr %18, align 4
  %41 = load ptr, ptr %7, align 8
  %42 = load i32, ptr %10, align 4
  %43 = add i32 %42, 5
  %44 = load i32, ptr %18, align 4
  %45 = call i32 @tvb_get_ipv4_addr_with_prefix_len(ptr noundef %41, i32 noundef %43, ptr noundef %20, i32 noundef %44)
  store i32 %45, ptr %19, align 4
  %46 = load i32, ptr %19, align 4
  %47 = icmp eq i32 %46, -1
  br i1 %47, label %48, label %55

48:                                               ; preds = %33
  %49 = load ptr, ptr %9, align 8
  %50 = load ptr, ptr %8, align 8
  %51 = load ptr, ptr %7, align 8
  %52 = load i32, ptr %10, align 4
  %53 = load i32, ptr %18, align 4
  %54 = call ptr (ptr, ptr, ptr, ptr, i32, i32, ptr, ...) @proto_tree_add_expert_format(ptr noundef %49, ptr noundef %50, ptr noundef @ei_isis_lsp_short_clv, ptr noundef %51, i32 noundef %52, i32 noundef -1, ptr noundef @.str.860, i32 noundef %53)
  store i32 1, ptr %29, align 4
  br label %213

55:                                               ; preds = %33
  store i32 0, ptr %24, align 4
  %56 = load i8, ptr %17, align 1
  %57 = zext i8 %56 to i32
  %58 = and i32 %57, 64
  %59 = icmp ne i32 %58, 0
  br i1 %59, label %60, label %69

60:                                               ; preds = %55
  %61 = load ptr, ptr %7, align 8
  %62 = load i32, ptr %10, align 4
  %63 = add i32 %62, 5
  %64 = load i32, ptr %19, align 4
  %65 = add i32 %63, %64
  %66 = call zeroext i8 @tvb_get_uint8(ptr noundef %61, i32 noundef %65)
  %67 = zext i8 %66 to i32
  %68 = add i32 1, %67
  store i32 %68, ptr %24, align 4
  br label %69

69:                                               ; preds = %60, %55
  %70 = load ptr, ptr %9, align 8
  %71 = load ptr, ptr %7, align 8
  %72 = load i32, ptr %10, align 4
  %73 = load i32, ptr %19, align 4
  %74 = add i32 5, %73
  %75 = load i32, ptr %24, align 4
  %76 = add i32 %74, %75
  %77 = load i32, ptr @ett_isis_lsp_part_of_clv_ext_ip_reachability, align 4
  %78 = call ptr @proto_tree_add_subtree(ptr noundef %70, ptr noundef %71, i32 noundef %72, i32 noundef %76, i32 noundef %77, ptr noundef %15, ptr noundef @.str.861)
  store ptr %78, ptr %13, align 8
  call void @set_address(ptr noundef %21, i32 noundef 2, i32 noundef 4, ptr noundef %20)
  %79 = load ptr, ptr %8, align 8
  %80 = getelementptr inbounds nuw %struct._packet_info, ptr %79, i32 0, i32 51
  %81 = load ptr, ptr %80, align 8
  %82 = call ptr @address_to_str(ptr noundef %81, ptr noundef %21)
  store ptr %82, ptr %28, align 8
  %83 = load ptr, ptr %15, align 8
  %84 = load ptr, ptr %28, align 8
  %85 = load i32, ptr %18, align 4
  call void (ptr, ptr, ...) @proto_item_append_text(ptr noundef %83, ptr noundef @.str.862, ptr noundef %84, i32 noundef %85)
  %86 = load ptr, ptr %13, align 8
  %87 = load i32, ptr @hf_isis_lsp_ext_ip_reachability_metric, align 4
  %88 = load ptr, ptr %7, align 8
  %89 = load i32, ptr %10, align 4
  %90 = call ptr @proto_tree_add_item(ptr noundef %86, i32 noundef %87, ptr noundef %88, i32 noundef %89, i32 noundef 4, i32 noundef 0)
  %91 = load ptr, ptr %13, align 8
  %92 = load i32, ptr @hf_isis_lsp_ext_ip_reachability_distribution, align 4
  %93 = load ptr, ptr %7, align 8
  %94 = load i32, ptr %10, align 4
  %95 = add i32 %94, 4
  %96 = call ptr @proto_tree_add_item(ptr noundef %91, i32 noundef %92, ptr noundef %93, i32 noundef %95, i32 noundef 1, i32 noundef 0)
  %97 = load ptr, ptr %13, align 8
  %98 = load i32, ptr @hf_isis_lsp_ext_ip_reachability_subtlv, align 4
  %99 = load ptr, ptr %7, align 8
  %100 = load i32, ptr %10, align 4
  %101 = add i32 %100, 4
  %102 = call ptr @proto_tree_add_item(ptr noundef %97, i32 noundef %98, ptr noundef %99, i32 noundef %101, i32 noundef 1, i32 noundef 0)
  %103 = load ptr, ptr %13, align 8
  %104 = load i32, ptr @hf_isis_lsp_ext_ip_reachability_prefix_length, align 4
  %105 = load ptr, ptr %7, align 8
  %106 = load i32, ptr %10, align 4
  %107 = add i32 %106, 4
  %108 = call ptr @proto_tree_add_item(ptr noundef %103, i32 noundef %104, ptr noundef %105, i32 noundef %107, i32 noundef 1, i32 noundef 0)
  %109 = load ptr, ptr %13, align 8
  %110 = load i32, ptr @hf_isis_lsp_ext_ip_reachability_ipv4_prefix, align 4
  %111 = load ptr, ptr %7, align 8
  %112 = load i32, ptr %10, align 4
  %113 = add i32 %112, 5
  %114 = load i32, ptr %19, align 4
  %115 = load i32, ptr %20, align 4
  %116 = call ptr @proto_tree_add_ipv4(ptr noundef %109, i32 noundef %110, ptr noundef %111, i32 noundef %113, i32 noundef %114, i32 noundef %115)
  %117 = load i32, ptr %19, align 4
  %118 = add i32 5, %117
  store i32 %118, ptr %22, align 4
  %119 = load i8, ptr %17, align 1
  %120 = zext i8 %119 to i32
  %121 = and i32 %120, 64
  %122 = icmp ne i32 %121, 0
  br i1 %122, label %123, label %197

123:                                              ; preds = %69
  %124 = load ptr, ptr %7, align 8
  %125 = load i32, ptr %10, align 4
  %126 = load i32, ptr %22, align 4
  %127 = add i32 %125, %126
  %128 = call zeroext i8 @tvb_get_uint8(ptr noundef %124, i32 noundef %127)
  %129 = zext i8 %128 to i32
  store i32 %129, ptr %24, align 4
  %130 = load ptr, ptr %13, align 8
  %131 = load i32, ptr @hf_isis_lsp_ext_ip_reachability_subclvs_len, align 4
  %132 = load ptr, ptr %7, align 8
  %133 = load i32, ptr %10, align 4
  %134 = load i32, ptr %22, align 4
  %135 = add i32 %133, %134
  %136 = call ptr @proto_tree_add_item(ptr noundef %130, i32 noundef %131, ptr noundef %132, i32 noundef %135, i32 noundef 1, i32 noundef 0)
  store i32 0, ptr %23, align 4
  br label %137

137:                                              ; preds = %141, %123
  %138 = load i32, ptr %23, align 4
  %139 = load i32, ptr %24, align 4
  %140 = icmp ult i32 %138, %139
  br i1 %140, label %141, label %192

141:                                              ; preds = %137
  %142 = load i32, ptr %10, align 4
  %143 = load i32, ptr %22, align 4
  %144 = add i32 %142, %143
  %145 = add i32 %144, 1
  %146 = load i32, ptr %23, align 4
  %147 = add i32 %145, %146
  store i32 %147, ptr %27, align 4
  %148 = load ptr, ptr %7, align 8
  %149 = load i32, ptr %27, align 4
  %150 = call zeroext i8 @tvb_get_uint8(ptr noundef %148, i32 noundef %149)
  %151 = zext i8 %150 to i32
  store i32 %151, ptr %25, align 4
  %152 = load ptr, ptr %7, align 8
  %153 = load i32, ptr %27, align 4
  %154 = add i32 %153, 1
  %155 = call zeroext i8 @tvb_get_uint8(ptr noundef %152, i32 noundef %154)
  %156 = zext i8 %155 to i32
  store i32 %156, ptr %26, align 4
  %157 = load ptr, ptr %13, align 8
  %158 = load ptr, ptr %7, align 8
  %159 = load i32, ptr %27, align 4
  %160 = load i32, ptr %26, align 4
  %161 = add i32 %160, 2
  %162 = load i32, ptr @ett_isis_lsp_clv_ip_reach_subclv, align 4
  %163 = call ptr @proto_tree_add_subtree(ptr noundef %157, ptr noundef %158, i32 noundef %159, i32 noundef %161, i32 noundef %162, ptr noundef %16, ptr noundef @.str.835)
  store ptr %163, ptr %14, align 8
  %164 = load ptr, ptr %14, align 8
  %165 = load i32, ptr @hf_isis_lsp_ext_ip_reachability_code, align 4
  %166 = load ptr, ptr %7, align 8
  %167 = load i32, ptr %27, align 4
  %168 = call ptr @proto_tree_add_item(ptr noundef %164, i32 noundef %165, ptr noundef %166, i32 noundef %167, i32 noundef 1, i32 noundef 0)
  %169 = load ptr, ptr %14, align 8
  %170 = load i32, ptr @hf_isis_lsp_ext_ip_reachability_len, align 4
  %171 = load ptr, ptr %7, align 8
  %172 = load i32, ptr %27, align 4
  %173 = add i32 %172, 1
  %174 = call ptr @proto_tree_add_item(ptr noundef %169, i32 noundef %170, ptr noundef %171, i32 noundef %173, i32 noundef 1, i32 noundef 0)
  %175 = load ptr, ptr %16, align 8
  %176 = load i32, ptr %25, align 4
  %177 = call ptr @val_to_str_const(i32 noundef %176, ptr noundef @isis_lsp_ext_ip_reachability_code_vals, ptr noundef @.str.599)
  %178 = load i32, ptr %25, align 4
  %179 = load i32, ptr %26, align 4
  call void (ptr, ptr, ...) @proto_item_append_text(ptr noundef %175, ptr noundef @.str.836, ptr noundef %177, i32 noundef %178, i32 noundef %179)
  %180 = load ptr, ptr %7, align 8
  %181 = load ptr, ptr %8, align 8
  %182 = load ptr, ptr %14, align 8
  %183 = load ptr, ptr %16, align 8
  %184 = load i32, ptr %27, align 4
  %185 = add i32 %184, 2
  %186 = load i32, ptr %25, align 4
  %187 = load i32, ptr %26, align 4
  call void @dissect_ipreach_subclv(ptr noundef %180, ptr noundef %181, ptr noundef %182, ptr noundef %183, i32 noundef %185, i32 noundef %186, i32 noundef %187)
  %188 = load i32, ptr %26, align 4
  %189 = add i32 %188, 2
  %190 = load i32, ptr %23, align 4
  %191 = add i32 %190, %189
  store i32 %191, ptr %23, align 4
  br label %137, !llvm.loop !12

192:                                              ; preds = %137
  %193 = load i32, ptr %24, align 4
  %194 = add i32 1, %193
  %195 = load i32, ptr %22, align 4
  %196 = add i32 %195, %194
  store i32 %196, ptr %22, align 4
  br label %205

197:                                              ; preds = %69
  %198 = load ptr, ptr %13, align 8
  %199 = load i32, ptr @hf_isis_lsp_ext_ip_reachability_subclvs_len, align 4
  %200 = load ptr, ptr %7, align 8
  %201 = load i32, ptr %10, align 4
  %202 = load i32, ptr %22, align 4
  %203 = add i32 %201, %202
  %204 = call ptr (ptr, i32, ptr, i32, i32, i32, ptr, ...) @proto_tree_add_uint_format(ptr noundef %198, i32 noundef %199, ptr noundef %200, i32 noundef %203, i32 noundef 0, i32 noundef 0, ptr noundef @.str.863)
  br label %205

205:                                              ; preds = %197, %192
  %206 = load i32, ptr %22, align 4
  %207 = load i32, ptr %10, align 4
  %208 = add i32 %207, %206
  store i32 %208, ptr %10, align 4
  %209 = load i32, ptr %22, align 4
  %210 = load i32, ptr %12, align 4
  %211 = sub i32 %210, %209
  store i32 %211, ptr %12, align 4
  br label %30, !llvm.loop !13

212:                                              ; preds = %30
  store i32 0, ptr %29, align 4
  br label %213

213:                                              ; preds = %212, %48
  call void @llvm.lifetime.end.p0(i64 8, ptr %28) #4
  call void @llvm.lifetime.end.p0(i64 4, ptr %27) #4
  call void @llvm.lifetime.end.p0(i64 4, ptr %26) #4
  call void @llvm.lifetime.end.p0(i64 4, ptr %25) #4
  call void @llvm.lifetime.end.p0(i64 4, ptr %24) #4
  call void @llvm.lifetime.end.p0(i64 4, ptr %23) #4
  call void @llvm.lifetime.end.p0(i64 4, ptr %22) #4
  call void @llvm.lifetime.end.p0(i64 24, ptr %21) #4
  call void @llvm.lifetime.end.p0(i64 4, ptr %20) #4
  call void @llvm.lifetime.end.p0(i64 4, ptr %19) #4
  call void @llvm.lifetime.end.p0(i64 4, ptr %18) #4
  call void @llvm.lifetime.end.p0(i64 1, ptr %17) #4
  call void @llvm.lifetime.end.p0(i64 8, ptr %16) #4
  call void @llvm.lifetime.end.p0(i64 8, ptr %15) #4
  call void @llvm.lifetime.end.p0(i64 8, ptr %14) #4
  call void @llvm.lifetime.end.p0(i64 8, ptr %13) #4
  %214 = load i32, ptr %29, align 4
  switch i32 %214, label %216 [
    i32 0, label %215
    i32 1, label %215
  ]

215:                                              ; preds = %213, %213
  ret void

216:                                              ; preds = %213
  unreachable
}