; Function Attrs: null_pointer_is_valid sspstrong uwtable
define internal void @dissect_lsp_ext_ip_reachability_clv(ptr noundef %0, ptr noundef %1, ptr noundef %2, i32 noundef %3, ptr readnone captures(none) %4, i32 noundef %5) #0 {
  %7 = alloca ptr, align 8
  %8 = alloca ptr, align 8
  %9 = alloca i32, align 4
  %10 = alloca %struct._address, align 8
  call void @llvm.lifetime.start.p0(i64 8, ptr nonnull %7) #3
  store ptr null, ptr %7, align 8
  call void @llvm.lifetime.start.p0(i64 8, ptr nonnull %8) #3
  store ptr null, ptr %8, align 8
  call void @llvm.lifetime.start.p0(i64 4, ptr nonnull %9) #3
  call void @llvm.lifetime.start.p0(i64 24, ptr nonnull %10) #3
  %11 = icmp sgt i32 %5, 0
  br i1 %11, label %.lr.ph100, label %.loopexit

.lr.ph100:                                        ; preds = %6
  %12 = getelementptr inbounds nuw i8, ptr %10, i64 4
  %13 = getelementptr inbounds nuw i8, ptr %10, i64 8
  %14 = getelementptr inbounds nuw i8, ptr %10, i64 16
  %15 = getelementptr inbounds nuw i8, ptr %1, i64 408
  br label %16

16:                                               ; preds = %.lr.ph100, %85
  %.098 = phi i32 [ %3, %.lr.ph100 ], [ %.pre-phi, %85 ]
  %.08997 = phi i32 [ %5, %.lr.ph100 ], [ %86, %85 ]
  %17 = add i32 %.098, 4
  %18 = call zeroext i8 @tvb_get_uint8(ptr noundef %0, i32 noundef %17)
  %19 = zext i8 %18 to i32
  %20 = and i32 %19, 63
  %21 = add i32 %.098, 5
  %22 = call i32 @tvb_get_ipv4_addr_with_prefix_len(ptr noundef %0, i32 noundef %21, ptr noundef nonnull %9, i32 noundef %20)
  %23 = icmp eq i32 %22, -1
  br i1 %23, label %24, label %26

24:                                               ; preds = %16
  %25 = call ptr (ptr, ptr, ptr, ptr, i32, i32, ptr, ...) @proto_tree_add_expert_format(ptr noundef %2, ptr noundef %1, ptr noundef nonnull @ei_isis_lsp_short_clv, ptr noundef %0, i32 noundef %.098, i32 noundef -1, ptr noundef nonnull @.str.860, i32 noundef %20)
  br label %.loopexit

26:                                               ; preds = %16
  %27 = and i32 %19, 64
  %.not = icmp eq i32 %27, 0
  br i1 %.not, label %33, label %28

28:                                               ; preds = %26
  %29 = add i32 %22, %21
  %30 = call zeroext i8 @tvb_get_uint8(ptr noundef %0, i32 noundef %29)
  %31 = zext i8 %30 to i32
  %32 = add nuw nsw i32 %31, 1
  br label %33

33:                                               ; preds = %28, %26
  %.090 = phi i32 [ %32, %28 ], [ 0, %26 ]
  %34 = add i32 %22, 5
  %35 = add i32 %.090, %34
  %36 = load i32, ptr @ett_isis_lsp_part_of_clv_ext_ip_reachability, align 4
  %37 = call ptr @proto_tree_add_subtree(ptr noundef %2, ptr noundef %0, i32 noundef %.098, i32 noundef %35, i32 noundef %36, ptr noundef nonnull %7, ptr noundef nonnull @.str.861)
  store i32 2, ptr %10, align 8
  store i32 4, ptr %12, align 4
  store ptr %9, ptr %13, align 8
  store ptr null, ptr %14, align 8
  %38 = load ptr, ptr %15, align 8
  %39 = call ptr @address_to_str(ptr noundef %38, ptr noundef nonnull %10)
  %40 = load ptr, ptr %7, align 8
  call void (ptr, ptr, ...) @proto_item_append_text(ptr noundef %40, ptr noundef nonnull @.str.862, ptr noundef %39, i32 noundef %20)
  %41 = load i32, ptr @hf_isis_lsp_ext_ip_reachability_metric, align 4
  %42 = call ptr @proto_tree_add_item(ptr noundef %37, i32 noundef %41, ptr noundef %0, i32 noundef %.098, i32 noundef 4, i32 noundef 0)
  %43 = load i32, ptr @hf_isis_lsp_ext_ip_reachability_distribution, align 4
  %44 = call ptr @proto_tree_add_item(ptr noundef %37, i32 noundef %43, ptr noundef %0, i32 noundef %17, i32 noundef 1, i32 noundef 0)
  %45 = load i32, ptr @hf_isis_lsp_ext_ip_reachability_subtlv, align 4
  %46 = call ptr @proto_tree_add_item(ptr noundef %37, i32 noundef %45, ptr noundef %0, i32 noundef %17, i32 noundef 1, i32 noundef 0)
  %47 = load i32, ptr @hf_isis_lsp_ext_ip_reachability_prefix_length, align 4
  %48 = call ptr @proto_tree_add_item(ptr noundef %37, i32 noundef %47, ptr noundef %0, i32 noundef %17, i32 noundef 1, i32 noundef 0)
  %49 = load i32, ptr @hf_isis_lsp_ext_ip_reachability_ipv4_prefix, align 4
  %50 = load i32, ptr %9, align 4
  %51 = call ptr @proto_tree_add_ipv4(ptr noundef %37, i32 noundef %49, ptr noundef %0, i32 noundef %21, i32 noundef %22, i32 noundef %50)
  br i1 %.not, label %81, label %52

52:                                               ; preds = %33
  %53 = add i32 %34, %.098
  %54 = call zeroext i8 @tvb_get_uint8(ptr noundef %0, i32 noundef %53)
  %55 = zext i8 %54 to i32
  %56 = load i32, ptr @hf_isis_lsp_ext_ip_reachability_subclvs_len, align 4
  %57 = call ptr @proto_tree_add_item(ptr noundef %37, i32 noundef %56, ptr noundef %0, i32 noundef %53, i32 noundef 1, i32 noundef 0)
  %.not101 = icmp eq i8 %54, 0
  br i1 %.not101, label %._crit_edge, label %.lr.ph

.lr.ph:                                           ; preds = %52
  %58 = add i32 %53, 1
  br label %59

59:                                               ; preds = %.lr.ph, %59
  %.09196 = phi i32 [ 0, %.lr.ph ], [ %77, %59 ]
  %60 = add i32 %58, %.09196
  %61 = call zeroext i8 @tvb_get_uint8(ptr noundef %0, i32 noundef %60)
  %62 = zext i8 %61 to i32
  %63 = add i32 %60, 1
  %64 = call zeroext i8 @tvb_get_uint8(ptr noundef %0, i32 noundef %63)
  %65 = zext i8 %64 to i32
  %66 = add nuw nsw i32 %65, 2
  %67 = load i32, ptr @ett_isis_lsp_clv_ip_reach_subclv, align 4
  %68 = call ptr @proto_tree_add_subtree(ptr noundef %37, ptr noundef %0, i32 noundef %60, i32 noundef %66, i32 noundef %67, ptr noundef nonnull %8, ptr noundef nonnull @.str.835)
  %69 = load i32, ptr @hf_isis_lsp_ext_ip_reachability_code, align 4
  %70 = call ptr @proto_tree_add_item(ptr noundef %68, i32 noundef %69, ptr noundef %0, i32 noundef %60, i32 noundef 1, i32 noundef 0)
  %71 = load i32, ptr @hf_isis_lsp_ext_ip_reachability_len, align 4
  %72 = call ptr @proto_tree_add_item(ptr noundef %68, i32 noundef %71, ptr noundef %0, i32 noundef %63, i32 noundef 1, i32 noundef 0)
  %73 = load ptr, ptr %8, align 8
  %74 = call ptr @val_to_str_const(i32 noundef %62, ptr noundef nonnull @isis_lsp_ext_ip_reachability_code_vals, ptr noundef nonnull @.str.599)
  call void (ptr, ptr, ...) @proto_item_append_text(ptr noundef %73, ptr noundef nonnull @.str.836, ptr noundef %74, i32 noundef %62, i32 noundef %65)
  %75 = load ptr, ptr %8, align 8
  %76 = add i32 %60, 2
  call fastcc void @dissect_ipreach_subclv(ptr noundef %0, ptr noundef %1, ptr noundef %68, ptr noundef %75, i32 noundef %76, i32 noundef %62, i32 noundef %65)
  %77 = add nuw nsw i32 %66, %.09196
  %78 = icmp samesign ult i32 %77, %55
  br i1 %78, label %59, label %._crit_edge, !llvm.loop !10

._crit_edge:                                      ; preds = %59, %52
  %79 = add i32 %22, 6
  %80 = add i32 %79, %55
  %.pre = add i32 %80, %.098
  br label %85

81:                                               ; preds = %33
  %82 = load i32, ptr @hf_isis_lsp_ext_ip_reachability_subclvs_len, align 4
  %83 = add i32 %34, %.098
  %84 = call ptr (ptr, i32, ptr, i32, i32, i32, ptr, ...) @proto_tree_add_uint_format(ptr noundef %37, i32 noundef %82, ptr noundef %0, i32 noundef %83, i32 noundef 0, i32 noundef 0, ptr noundef nonnull @.str.863)
  br label %85

85:                                               ; preds = %81, %._crit_edge
  %.pre-phi = phi i32 [ %83, %81 ], [ %.pre, %._crit_edge ]
  %.092 = phi i32 [ %34, %81 ], [ %80, %._crit_edge ]
  %86 = sub i32 %.08997, %.092
  %87 = icmp sgt i32 %86, 0
  br i1 %87, label %16, label %.loopexit, !llvm.loop !11

.loopexit:                                        ; preds = %85, %6, %24
  call void @llvm.lifetime.end.p0(i64 24, ptr nonnull %10) #3
  call void @llvm.lifetime.end.p0(i64 4, ptr nonnull %9) #3
  call void @llvm.lifetime.end.p0(i64 8, ptr nonnull %8) #3
  call void @llvm.lifetime.end.p0(i64 8, ptr nonnull %7) #3
  ret void
}